target datalayout = "e-m:e-p270:32:32-p271:32:32-p272:64:64-i64:64-i128:128-f80:128-n8:16:32:64-S128"
target triple = "x86_64-pc-linux-gnu"

%struct.ocb128_context = type { ptr, ptr, ptr, ptr, ptr, i64, i64, %union.OCB_BLOCK, %union.OCB_BLOCK, ptr, %struct.anon }
%union.OCB_BLOCK = type { [2 x i64] }
%struct.anon = type { i64, i64, %union.OCB_BLOCK, %union.OCB_BLOCK, %union.OCB_BLOCK, %union.OCB_BLOCK }

; Function Attrs: nounwind uwtable
define internal void @ocb_block_lshift(ptr noundef %0, i64 noundef %1, ptr noundef %2) #0 {
  %4 = alloca ptr, align 8
  %5 = alloca i64, align 8
  %6 = alloca ptr, align 8
  %7 = alloca i32, align 4
  %8 = alloca i8, align 1
  %9 = alloca i8, align 1
  store ptr %0, ptr %4, align 8, !tbaa !24
  store i64 %1, ptr %5, align 8, !tbaa !26
  store ptr %2, ptr %6, align 8, !tbaa !24
  call void @llvm.lifetime.start.p0(i64 4, ptr %7) #5
  call void @llvm.lifetime.start.p0(i64 1, ptr %8) #5
  store i8 0, ptr %8, align 1, !tbaa !23
  call void @llvm.lifetime.start.p0(i64 1, ptr %9) #5
  store i32 15, ptr %7, align 4, !tbaa !9
  br label %10

10:                                               ; preds = %43, %3
  %11 = load i32, ptr %7, align 4, !tbaa !9
  %12 = icmp sge i32 %11, 0
  br i1 %12, label %13, label %46

13:                                               ; preds = %10
  %14 = load ptr, ptr %4, align 8, !tbaa !24
  %15 = load i32, ptr %7, align 4, !tbaa !9
  %16 = sext i32 %15 to i64
  %17 = getelementptr inbounds i8, ptr %14, i64 %16
  %18 = load i8, ptr %17, align 1, !tbaa !23
  %19 = zext i8 %18 to i32
  %20 = load i64, ptr %5, align 8, !tbaa !26
  %21 = sub i64 8, %20
  %22 = trunc i64 %21 to i32
  %23 = ashr i32 %19, %22
  %24 = trunc i32 %23 to i8
  store i8 %24, ptr %9, align 1, !tbaa !23
  %25 = load ptr, ptr %4, align 8, !tbaa !24
  %26 = load i32, ptr %7, align 4, !tbaa !9
  %27 = sext i32 %26 to i64
  %28 = getelementptr inbounds i8, ptr %25, i64 %27
  %29 = load i8, ptr %28, align 1, !tbaa !23
  %30 = zext i8 %29 to i32
  %31 = load i64, ptr %5, align 8, !tbaa !26
  %32 = trunc i64 %31 to i32
  %33 = shl i32 %30, %32
  %34 = load i8, ptr %8, align 1, !tbaa !23
  %35 = zext i8 %34 to i32
  %36 = or i32 %33, %35
  %37 = trunc i32 %36 to i8
  %38 = load ptr, ptr %6, align 8, !tbaa !24
  %39 = load i32, ptr %7, align 4, !tbaa !9
  %40 = sext i32 %39 to i64
  %41 = getelementptr inbounds i8, ptr %38, i64 %40
  store i8 %37, ptr %41, align 1, !tbaa !23
  %42 = load i8, ptr %9, align 1, !tbaa !23
  store i8 %42, ptr %8, align 1, !tbaa !23
  br label %43

43:                                               ; preds = %13
  %44 = load i32, ptr %7, align 4, !tbaa !9
  %45 = add nsw i32 %44, -1
  store i32 %45, ptr %7, align 4, !tbaa !9
  br label %10, !llvm.loop !29

46:                                               ; preds = %10
  call void @llvm.lifetime.end.p0(i64 1, ptr %9) #5
  call void @llvm.lifetime.end.p0(i64 1, ptr %8) #5
  call void @llvm.lifetime.end.p0(i64 4, ptr %7) #5
  ret void
}

; Function Attrs: nounwind uwtable
define internal void @ocb_block_xor(ptr noundef %0, ptr noundef %1, i64 noundef %2, ptr noundef %3) #0 {
  %5 = alloca ptr, align 8
  %6 = alloca ptr, align 8
  %7 = alloca i64, align 8
  %8 = alloca ptr, align 8
  %9 = alloca i64, align 8
  store ptr %0, ptr %5, align 8, !tbaa !24
  store ptr %1, ptr %6, align 8, !tbaa !24
  store i64 %2, ptr %7, align 8, !tbaa !26
  store ptr %3, ptr %8, align 8, !tbaa !24
  call void @llvm.lifetime.start.p0(i64 8, ptr %9) #5
  store i64 0, ptr %9, align 8, !tbaa !26
  br label %10

10:                                               ; preds = %30, %4
  %11 = load i64, ptr %9, align 8, !tbaa !26
  %12 = load i64, ptr %7, align 8, !tbaa !26
  %13 = icmp ult i64 %11, %12
  br i1 %13, label %14, label %33

14:                                               ; preds = %10
  %15 = load ptr, ptr %5, align 8, !tbaa !24
  %16 = load i64, ptr %9, align 8, !tbaa !26
  %17 = getelementptr inbounds nuw i8, ptr %15, i64 %16
  %18 = load i8, ptr %17, align 1, !tbaa !23
  %19 = zext i8 %18 to i32
  %20 = load ptr, ptr %6, align 8, !tbaa !24
  %21 = load i64, ptr %9, align 8, !tbaa !26
  %22 = getelementptr inbounds nuw i8, ptr %20, i64 %21
  %23 = load i8, ptr %22, align 1, !tbaa !23
  %24 = zext i8 %23 to i32
  %25 = xor i32 %19, %24
  %26 = trunc i32 %25 to i8
  %27 = load ptr, ptr %8, align 8, !tbaa !24
  %28 = load i64, ptr %9, align 8, !tbaa !26
  %29 = getelementptr inbounds nuw i8, ptr %27, i64 %28
  store i8 %26, ptr %29, align 1, !tbaa !23
  br label %30

30:                                               ; preds = %14
  %31 = load i64, ptr %9, align 8, !tbaa !26
  %32 = add i64 %31, 1
  store i64 %32, ptr %9, align 8, !tbaa !26
  br label %10, !llvm.loop !27

33:                                               ; preds = %10
  call void @llvm.lifetime.end.p0(i64 8, ptr %9) #5
  ret void
}

; Function Attrs: nounwind uwtable
define i32 @CRYPTO_ocb128_setiv(ptr noundef %0, ptr noundef %1, i64 noundef %2, i64 noundef %3) #0 {
  %5 = alloca i32, align 4
  %6 = alloca ptr, align 8
  %7 = alloca ptr, align 8
  %8 = alloca i64, align 8
  %9 = alloca i64, align 8
  %10 = alloca [16 x i8], align 16
  %11 = alloca [16 x i8], align 16
  %12 = alloca i8, align 1
  %13 = alloca [24 x i8], align 16
  %14 = alloca [16 x i8], align 16
  %15 = alloca i64, align 8
  %16 = alloca i64, align 8
  %17 = alloca i32, align 4
  store ptr %0, ptr %6, align 8, !tbaa !7
  store ptr %1, ptr %7, align 8, !tbaa !24
  store i64 %2, ptr %8, align 8, !tbaa !26
  store i64 %3, ptr %9, align 8, !tbaa !26
  call void @llvm.lifetime.start.p0(i64 16, ptr %10) #5
  call void @llvm.lifetime.start.p0(i64 16, ptr %11) #5
  call void @llvm.lifetime.start.p0(i64 1, ptr %12) #5
  call void @llvm.lifetime.start.p0(i64 24, ptr %13) #5
  call void @llvm.lifetime.start.p0(i64 16, ptr %14) #5
  call void @llvm.lifetime.start.p0(i64 8, ptr %15) #5
  call void @llvm.lifetime.start.p0(i64 8, ptr %16) #5
  %18 = load i64, ptr %8, align 8, !tbaa !26
  %19 = icmp ugt i64 %18, 15
  br i1 %19, label %29, label %20

20:                                               ; preds = %4
  %21 = load i64, ptr %8, align 8, !tbaa !26
  %22 = icmp ult i64 %21, 1
  br i1 %22, label %29, label %23

23:                                               ; preds = %20
  %24 = load i64, ptr %9, align 8, !tbaa !26
  %25 = icmp ugt i64 %24, 16
  br i1 %25, label %29, label %26

26:                                               ; preds = %23
  %27 = load i64, ptr %9, align 8, !tbaa !26
  %28 = icmp ult i64 %27, 1
  br i1 %28, label %29, label %30

29:                                               ; preds = %26, %23, %20, %4
  store i32 -1, ptr %5, align 4
  store i32 1, ptr %17, align 4
  br label %122

30:                                               ; preds = %26
  %31 = load ptr, ptr %6, align 8, !tbaa !7
  %32 = getelementptr inbounds nuw %struct.ocb128_context, ptr %31, i32 0, i32 10
  call void @llvm.memset.p0.i64(ptr align 8 %32, i8 0, i64 80, i1 false)
  %33 = load i64, ptr %9, align 8, !tbaa !26
  %34 = mul i64 %33, 8
  %35 = urem i64 %34, 128
  %36 = shl i64 %35, 1
  %37 = trunc i64 %36 to i8
  %38 = getelementptr inbounds [16 x i8], ptr %14, i64 0, i64 0
  store i8 %37, ptr %38, align 16, !tbaa !23
  %39 = getelementptr inbounds [16 x i8], ptr %14, i64 0, i64 0
  %40 = getelementptr inbounds i8, ptr %39, i64 1
  call void @llvm.memset.p0.i64(ptr align 1 %40, i8 0, i64 15, i1 false)
  %41 = getelementptr inbounds [16 x i8], ptr %14, i64 0, i64 0
  %42 = getelementptr inbounds i8, ptr %41, i64 16
  %43 = load i64, ptr %8, align 8, !tbaa !26
  %44 = sub i64 0, %43
  %45 = getelementptr inbounds i8, ptr %42, i64 %44
  %46 = load ptr, ptr %7, align 8, !tbaa !24
  %47 = load i64, ptr %8, align 8, !tbaa !26
  call void @llvm.memcpy.p0.p0.i64(ptr align 1 %45, ptr align 1 %46, i64 %47, i1 false)
  %48 = load i64, ptr %8, align 8, !tbaa !26
  %49 = sub i64 15, %48
  %50 = getelementptr inbounds nuw [16 x i8], ptr %14, i64 0, i64 %49
  %51 = load i8, ptr %50, align 1, !tbaa !23
  %52 = zext i8 %51 to i32
  %53 = or i32 %52, 1
  %54 = trunc i32 %53 to i8
  store i8 %54, ptr %50, align 1, !tbaa !23
  %55 = getelementptr inbounds [16 x i8], ptr %11, i64 0, i64 0
  %56 = getelementptr inbounds [16 x i8], ptr %14, i64 0, i64 0
  call void @llvm.memcpy.p0.p0.i64(ptr align 16 %55, ptr align 16 %56, i64 16, i1 false)
  %57 = getelementptr inbounds [16 x i8], ptr %11, i64 0, i64 15
  %58 = load i8, ptr %57, align 1, !tbaa !23
  %59 = zext i8 %58 to i32
  %60 = and i32 %59, 192
  %61 = trunc i32 %60 to i8
  store i8 %61, ptr %57, align 1, !tbaa !23
  %62 = load ptr, ptr %6, align 8, !tbaa !7
  %63 = getelementptr inbounds nuw %struct.ocb128_context, ptr %62, i32 0, i32 0
  %64 = load ptr, ptr %63, align 8, !tbaa !18
  %65 = getelementptr inbounds [16 x i8], ptr %11, i64 0, i64 0
  %66 = getelementptr inbounds [16 x i8], ptr %10, i64 0, i64 0
  %67 = load ptr, ptr %6, align 8, !tbaa !7
  %68 = getelementptr inbounds nuw %struct.ocb128_context, ptr %67, i32 0, i32 2
  %69 = load ptr, ptr %68, align 8, !tbaa !21
  call void %64(ptr noundef %65, ptr noundef %66, ptr noundef %69)
  %70 = getelementptr inbounds [24 x i8], ptr %13, i64 0, i64 0
  %71 = getelementptr inbounds [16 x i8], ptr %10, i64 0, i64 0
  call void @llvm.memcpy.p0.p0.i64(ptr align 16 %70, ptr align 16 %71, i64 16, i1 false)
  %72 = getelementptr inbounds [16 x i8], ptr %10, i64 0, i64 0
  %73 = getelementptr inbounds [16 x i8], ptr %10, i64 0, i64 0
  %74 = getelementptr inbounds i8, ptr %73, i64 1
  %75 = getelementptr inbounds [24 x i8], ptr %13, i64 0, i64 0
  %76 = getelementptr inbounds i8, ptr %75, i64 16
  call void @ocb_block_xor(ptr noundef %72, ptr noundef %74, i64 noundef 8, ptr noundef %76)
  %77 = getelementptr inbounds [16 x i8], ptr %14, i64 0, i64 15
  %78 = load i8, ptr %77, align 1, !tbaa !23
  %79 = zext i8 %78 to i32
  %80 = and i32 %79, 63
  %81 = sext i32 %80 to i64
  store i64 %81, ptr %15, align 8, !tbaa !26
  %82 = load i64, ptr %15, align 8, !tbaa !26
  %83 = urem i64 %82, 8
  store i64 %83, ptr %16, align 8, !tbaa !26
  %84 = getelementptr inbounds [24 x i8], ptr %13, i64 0, i64 0
  %85 = load i64, ptr %15, align 8, !tbaa !26
  %86 = udiv i64 %85, 8
  %87 = getelementptr inbounds nuw i8, ptr %84, i64 %86
  %88 = load i64, ptr %16, align 8, !tbaa !26
  %89 = load ptr, ptr %6, align 8, !tbaa !7
  %90 = getelementptr inbounds nuw %struct.ocb128_context, ptr %89, i32 0, i32 10
  %91 = getelementptr inbounds nuw %struct.anon, ptr %90, i32 0, i32 4
  %92 = getelementptr inbounds [16 x i8], ptr %91, i64 0, i64 0
  call void @ocb_block_lshift(ptr noundef %87, i64 noundef %88, ptr noundef %92)
  store i8 -1, ptr %12, align 1, !tbaa !23
  %93 = load i64, ptr %16, align 8, !tbaa !26
  %94 = sub i64 8, %93
  %95 = load i8, ptr %12, align 1, !tbaa !23
  %96 = zext i8 %95 to i32
  %97 = trunc i64 %94 to i32
  %98 = shl i32 %96, %97
  %99 = trunc i32 %98 to i8
  store i8 %99, ptr %12, align 1, !tbaa !23
  %100 = getelementptr inbounds [24 x i8], ptr %13, i64 0, i64 0
  %101 = load i64, ptr %15, align 8, !tbaa !26
  %102 = udiv i64 %101, 8
  %103 = getelementptr inbounds nuw i8, ptr %100, i64 %102
  %104 = getelementptr inbounds i8, ptr %103, i64 16
  %105 = load i8, ptr %104, align 1, !tbaa !23
  %106 = zext i8 %105 to i32
  %107 = load i8, ptr %12, align 1, !tbaa !23
  %108 = zext i8 %107 to i32
  %109 = and i32 %106, %108
  %110 = load i64, ptr %16, align 8, !tbaa !26
  %111 = sub i64 8, %110
  %112 = trunc i64 %111 to i32
  %113 = ashr i32 %109, %112
  %114 = load ptr, ptr %6, align 8, !tbaa !7
  %115 = getelementptr inbounds nuw %struct.ocb128_context, ptr %114, i32 0, i32 10
  %116 = getelementptr inbounds nuw %struct.anon, ptr %115, i32 0, i32 4
  %117 = getelementptr inbounds [16 x i8], ptr %116, i64 0, i64 15
  %118 = load i8, ptr %117, align 1, !tbaa !23
  %119 = zext i8 %118 to i32
  %120 = or i32 %119, %113
  %121 = trunc i32 %120 to i8
  store i8 %121, ptr %117, align 1, !tbaa !23
  store i32 1, ptr %5, align 4
  store i32 1, ptr %17, align 4
  br label %122

122:                                              ; preds = %30, %29
  call void @llvm.lifetime.end.p0(i64 8, ptr %16) #5
  call void @llvm.lifetime.end.p0(i64 8, ptr %15) #5
  call void @llvm.lifetime.end.p0(i64 16, ptr %14) #5
  call void @llvm.lifetime.end.p0(i64 24, ptr %13) #5
  call void @llvm.lifetime.end.p0(i64 1, ptr %12) #5
  call void @llvm.lifetime.end.p0(i64 16, ptr %11) #5
  call void @llvm.lifetime.end.p0(i64 16, ptr %10) #5
  %123 = load i32, ptr %5, align 4
  ret i32 %123
}