; Function Attrs: nounwind uwtable
define range(i32 -1, 2) i32 @CRYPTO_ocb128_setiv(ptr noundef captures(none) %0, ptr noundef readonly captures(none) %1, i64 noundef %2, i64 noundef %3) local_unnamed_addr #0 {
  %5 = alloca [16 x i8], align 16
  %6 = alloca [16 x i8], align 16
  %7 = alloca [24 x i8], align 16
  %8 = alloca [16 x i8], align 16
  call void @llvm.lifetime.start.p0(i64 16, ptr nonnull %5) #6
  call void @llvm.lifetime.start.p0(i64 16, ptr nonnull %6) #6
  call void @llvm.lifetime.start.p0(i64 24, ptr nonnull %7) #6
  call void @llvm.lifetime.start.p0(i64 16, ptr nonnull %8) #6
  %9 = add i64 %2, -16
  %or.cond = icmp ult i64 %9, -15
  %10 = add i64 %3, -17
  %11 = icmp ult i64 %10, -16
  %or.cond5 = or i1 %or.cond, %11
  br i1 %or.cond5, label %66, label %12

12:                                               ; preds = %4
  %13 = getelementptr inbounds nuw i8, ptr %0, i64 96
  tail call void @llvm.memset.p0.i64(ptr noundef nonnull align 8 dereferenceable(80) %13, i8 0, i64 80, i1 false)
  %.tr = trunc nuw i64 %3 to i8
  %14 = shl i8 %.tr, 4
  store i8 %14, ptr %8, align 16, !tbaa !17
  %15 = getelementptr inbounds nuw i8, ptr %8, i64 1
  call void @llvm.memset.p0.i64(ptr noundef nonnull align 1 dereferenceable(15) %15, i8 0, i64 15, i1 false)
  %16 = getelementptr inbounds nuw i8, ptr %8, i64 16
  %17 = sub nsw i64 0, %2
  %18 = getelementptr inbounds i8, ptr %16, i64 %17
  call void @llvm.memcpy.p0.p0.i64(ptr nonnull align 1 %18, ptr align 1 %1, i64 %2, i1 false)
  %19 = sub nuw nsw i64 15, %2
  %20 = getelementptr inbounds nuw [16 x i8], ptr %8, i64 0, i64 %19
  %21 = load i8, ptr %20, align 1, !tbaa !17
  %22 = or i8 %21, 1
  store i8 %22, ptr %20, align 1, !tbaa !17
  call void @llvm.memcpy.p0.p0.i64(ptr noundef nonnull align 16 dereferenceable(16) %6, ptr noundef nonnull align 16 dereferenceable(16) %8, i64 16, i1 false)
  %23 = getelementptr inbounds nuw i8, ptr %6, i64 15
  %24 = load i8, ptr %23, align 1, !tbaa !17
  %25 = and i8 %24, -64
  store i8 %25, ptr %23, align 1, !tbaa !17
  %26 = load ptr, ptr %0, align 8, !tbaa !12
  %27 = getelementptr inbounds nuw i8, ptr %0, i64 16
  %28 = load ptr, ptr %27, align 8, !tbaa !15
  call void %26(ptr noundef nonnull %6, ptr noundef nonnull %5, ptr noundef %28) #6
  call void @llvm.memcpy.p0.p0.i64(ptr noundef nonnull align 16 dereferenceable(16) %7, ptr noundef nonnull align 16 dereferenceable(16) %5, i64 16, i1 false)
  %29 = getelementptr inbounds nuw i8, ptr %5, i64 1
  %30 = getelementptr inbounds nuw i8, ptr %7, i64 16
  br label %31

31:                                               ; preds = %31, %12
  %.08.i = phi i64 [ 0, %12 ], [ %38, %31 ]
  %32 = getelementptr inbounds nuw i8, ptr %5, i64 %.08.i
  %33 = load i8, ptr %32, align 1, !tbaa !17
  %34 = getelementptr inbounds nuw i8, ptr %29, i64 %.08.i
  %35 = load i8, ptr %34, align 1, !tbaa !17
  %36 = xor i8 %35, %33
  %37 = getelementptr inbounds nuw i8, ptr %30, i64 %.08.i
  store i8 %36, ptr %37, align 1, !tbaa !17
  %38 = add nuw nsw i64 %.08.i, 1
  %exitcond.not.i = icmp eq i64 %38, 8
  br i1 %exitcond.not.i, label %ocb_block_xor.exit, label %31, !llvm.loop !21

ocb_block_xor.exit:                               ; preds = %31
  %39 = getelementptr inbounds nuw i8, ptr %8, i64 15
  %40 = load i8, ptr %39, align 1, !tbaa !17
  %41 = lshr i8 %40, 3
  %42 = and i8 %41, 7
  %43 = zext nneg i8 %42 to i64
  %44 = getelementptr inbounds nuw i8, ptr %7, i64 %43
  %45 = getelementptr inbounds nuw i8, ptr %0, i64 144
  %46 = and i8 %40, 7
  %47 = zext nneg i8 %46 to i16
  %48 = sub nuw nsw i16 8, %47
  br label %49

49:                                               ; preds = %49, %ocb_block_xor.exit
  %indvars.iv.i = phi i64 [ 15, %ocb_block_xor.exit ], [ %indvars.iv.next.i, %49 ]
  %.01112.i = phi i16 [ 0, %ocb_block_xor.exit ], [ %53, %49 ]
  %50 = getelementptr inbounds nuw i8, ptr %44, i64 %indvars.iv.i
  %51 = load i8, ptr %50, align 1, !tbaa !17
  %52 = zext i8 %51 to i16
  %53 = lshr i16 %52, %48
  %54 = shl nuw nsw i16 %52, %47
  %55 = or i16 %54, %.01112.i
  %56 = trunc i16 %55 to i8
  %57 = getelementptr inbounds nuw i8, ptr %45, i64 %indvars.iv.i
  store i8 %56, ptr %57, align 1, !tbaa !17
  %indvars.iv.next.i = add nsw i64 %indvars.iv.i, -1
  %.not.i = icmp eq i64 %indvars.iv.i, 0
  br i1 %.not.i, label %ocb_block_lshift.exit, label %49, !llvm.loop !18

ocb_block_lshift.exit:                            ; preds = %49
  %58 = getelementptr inbounds nuw i8, ptr %44, i64 16
  %59 = load i8, ptr %58, align 1, !tbaa !17
  %60 = zext i8 %59 to i16
  %61 = lshr i16 %60, %48
  %62 = getelementptr inbounds nuw i8, ptr %0, i64 159
  %63 = load i8, ptr %62, align 1, !tbaa !17
  %64 = trunc nuw nsw i16 %61 to i8
  %65 = or i8 %63, %64
  store i8 %65, ptr %62, align 1, !tbaa !17
  br label %66

66:                                               ; preds = %4, %ocb_block_lshift.exit
  %.0 = phi i32 [ 1, %ocb_block_lshift.exit ], [ -1, %4 ]
  call void @llvm.lifetime.end.p0(i64 16, ptr nonnull %8) #6
  call void @llvm.lifetime.end.p0(i64 24, ptr nonnull %7) #6
  call void @llvm.lifetime.end.p0(i64 16, ptr nonnull %6) #6
  call void @llvm.lifetime.end.p0(i64 16, ptr nonnull %5) #6
  ret i32 %.0
}